target datalayout = "e-m:e-p270:32:32-p271:32:32-p272:64:64-i64:64-i128:128-f80:128-n8:16:32:64-S128"
target triple = "x86_64-pc-linux-gnu"

%struct.H5HF_huge_bt2_ctx_t = type { i8, i8 }

@H5HF_init_g = external global i8, align 1
@H5_libterm_g = external global i8, align 1
@.str.4 = private unnamed_addr constant [104 x i8] c"generated/home/dtcxzyw/WorkSpace/Projects/compilers/llvm-opt-benchmark/bench/hdf5/hdf5/src/H5HFbtree2.c\00", align 1
@H5E_HEAP_g = external global i64, align 8
@__func__.H5HF__huge_bt2_crt_context = private unnamed_addr constant [27 x i8] c"H5HF__huge_bt2_crt_context\00", align 1
@H5E_CANTALLOC_g = external global i64, align 8
@.str.6 = private unnamed_addr constant [32 x i8] c"can't allocate callback context\00", align 1
@H5_H5HF_huge_bt2_ctx_t_reg_free_list = internal global { i8, [3 x i8], i32, i32, [4 x i8], ptr, i64, ptr } { i8 0, [3 x i8] zeroinitializer, i32 0, i32 0, [4 x i8] zeroinitializer, ptr @.str.7, i64 2, ptr null }, align 8

; Function Attrs: nounwind uwtable
define internal ptr @H5HF__huge_bt2_crt_context(ptr noundef %0) #0 {
  %2 = alloca ptr, align 8
  %3 = alloca ptr, align 8
  %4 = alloca ptr, align 8
  %5 = alloca ptr, align 8
  %6 = alloca i8, align 1
  store ptr %0, ptr %2, align 8, !tbaa !3
  call void @llvm.lifetime.start.p0(i64 8, ptr %3) #6
  %7 = load ptr, ptr %2, align 8, !tbaa !3
  store ptr %7, ptr %3, align 8, !tbaa !7
  call void @llvm.lifetime.start.p0(i64 8, ptr %4) #6
  call void @llvm.lifetime.start.p0(i64 8, ptr %5) #6
  store ptr null, ptr %5, align 8, !tbaa !3
  call void @llvm.lifetime.start.p0(i64 1, ptr %6) #6
  store i8 0, ptr %6, align 1, !tbaa !9
  %8 = load i8, ptr @H5HF_init_g, align 1, !tbaa !9, !range !11, !noundef !12
  %9 = trunc i8 %8 to i1
  br i1 %9, label %14, label %10

10:                                               ; preds = %1
  %11 = load i8, ptr @H5_libterm_g, align 1, !tbaa !9, !range !11, !noundef !12
  %12 = trunc i8 %11 to i1
  %13 = xor i1 %12, true
  br label %14

14:                                               ; preds = %10, %1
  %15 = phi i1 [ true, %1 ], [ %13, %10 ]
  %16 = xor i1 %15, true
  %17 = xor i1 %16, true
  %18 = zext i1 %17 to i32
  %19 = sext i32 %18 to i64
  %20 = call i64 @llvm.expect.i64(i64 %19, i64 1)
  %21 = icmp ne i64 %20, 0
  br i1 %21, label %22, label %55

22:                                               ; preds = %14
  %23 = call noalias ptr @H5FL_reg_malloc(ptr noundef @H5_H5HF_huge_bt2_ctx_t_reg_free_list)
  store ptr %23, ptr %4, align 8, !tbaa !13
  %24 = icmp eq ptr null, %23
  br i1 %24, label %25, label %44

25:                                               ; preds = %22
  br label %26

26:                                               ; preds = %25
  br label %27

27:                                               ; preds = %26
  br label %28

28:                                               ; preds = %27
  %29 = load i64, ptr @H5E_HEAP_g, align 8, !tbaa !15
  %30 = load i64, ptr @H5E_CANTALLOC_g, align 8, !tbaa !15
  %31 = call i32 (ptr, ptr, i32, i64, i64, ptr, ...) @H5E_printf_stack(ptr noundef @.str.4, ptr noundef @__func__.H5HF__huge_bt2_crt_context, i32 noundef 199, i64 noundef %29, i64 noundef %30, ptr noundef @.str.6)
  br label %32

32:                                               ; preds = %28
  br label %33

33:                                               ; preds = %32
  store i8 1, ptr %6, align 1, !tbaa !9
  %34 = load i8, ptr %6, align 1, !tbaa !9, !range !11, !noundef !12
  %35 = trunc i8 %34 to i1
  %36 = zext i1 %35 to i8
  store i8 %36, ptr %6, align 1, !tbaa !9
  br label %37

37:                                               ; preds = %33
  br label %38

38:                                               ; preds = %37
  br label %39

39:                                               ; preds = %38
  store ptr null, ptr %5, align 8, !tbaa !3
  br label %54

40:                                               ; No predecessors!
  br label %41

41:                                               ; preds = %40
  br label %42

42:                                               ; preds = %41
  br label %43

43:                                               ; preds = %42
  br label %44

44:                                               ; preds = %43, %22
  %45 = load ptr, ptr %3, align 8, !tbaa !7
  %46 = call zeroext i8 @H5F_sizeof_addr(ptr noundef %45)
  %47 = load ptr, ptr %4, align 8, !tbaa !13
  %48 = getelementptr inbounds nuw %struct.H5HF_huge_bt2_ctx_t, ptr %47, i32 0, i32 1
  store i8 %46, ptr %48, align 1, !tbaa !17
  %49 = load ptr, ptr %3, align 8, !tbaa !7
  %50 = call zeroext i8 @H5F_sizeof_size(ptr noundef %49)
  %51 = load ptr, ptr %4, align 8, !tbaa !13
  %52 = getelementptr inbounds nuw %struct.H5HF_huge_bt2_ctx_t, ptr %51, i32 0, i32 0
  store i8 %50, ptr %52, align 1, !tbaa !19
  %53 = load ptr, ptr %4, align 8, !tbaa !13
  store ptr %53, ptr %5, align 8, !tbaa !3
  br label %54

54:                                               ; preds = %44, %39
  br label %55

55:                                               ; preds = %54, %14
  %56 = load ptr, ptr %5, align 8, !tbaa !3
  call void @llvm.lifetime.end.p0(i64 1, ptr %6) #6
  call void @llvm.lifetime.end.p0(i64 8, ptr %5) #6
  call void @llvm.lifetime.end.p0(i64 8, ptr %4) #6
  call void @llvm.lifetime.end.p0(i64 8, ptr %3) #6
  ret ptr %56
}