; Function Attrs: nounwind uwtable
define internal noalias ptr @H5HF__huge_bt2_crt_context(ptr noundef %0) #0 {
  %2 = load i8, ptr @H5HF_init_g, align 1, !tbaa !3, !range !7, !noundef !8
  %3 = trunc nuw i8 %2 to i1
  %4 = load i8, ptr @H5_libterm_g, align 1, !range !7
  %5 = trunc nuw i8 %4 to i1
  %6 = xor i1 %5, true
  %7 = select i1 %3, i1 true, i1 %6
  br i1 %7, label %8, label %19, !prof !9

8:                                                ; preds = %1
  %9 = tail call noalias ptr @H5FL_reg_malloc(ptr noundef nonnull @H5_H5HF_huge_bt2_ctx_t_reg_free_list) #6
  %10 = icmp eq ptr %9, null
  br i1 %10, label %11, label %15

11:                                               ; preds = %8
  %12 = load i64, ptr @H5E_HEAP_g, align 8, !tbaa !10
  %13 = load i64, ptr @H5E_CANTALLOC_g, align 8, !tbaa !10
  %14 = tail call i32 (ptr, ptr, i32, i64, i64, ptr, ...) @H5E_printf_stack(ptr noundef nonnull @.str.4, ptr noundef nonnull @__func__.H5HF__huge_bt2_crt_context, i32 noundef 199, i64 noundef %12, i64 noundef %13, ptr noundef nonnull @.str.6) #6
  br label %19

15:                                               ; preds = %8
  %16 = tail call zeroext i8 @H5F_sizeof_addr(ptr noundef %0) #6
  %17 = getelementptr inbounds nuw i8, ptr %9, i64 1
  store i8 %16, ptr %17, align 1, !tbaa !12
  %18 = tail call zeroext i8 @H5F_sizeof_size(ptr noundef %0) #6
  store i8 %18, ptr %9, align 1, !tbaa !14
  br label %19

19:                                               ; preds = %11, %15, %1
  %.0 = phi ptr [ null, %11 ], [ %9, %15 ], [ null, %1 ]
  ret ptr %.0
}